libsource-highlight.so.4:_Z11langdef_lexv
libsource-highlight.so.4:_Z11stylesc_lexv
libsource-highlight.so.4:_Z12langdef_freePv
libsource-highlight.so.4:_Z12stylesc_freePv
libsource-highlight.so.4:_Z13langdef_allocm
libsource-highlight.so.4:_Z13langdef_parsev
libsource-highlight.so.4:_Z13stylesc_allocm
libsource-highlight.so.4:_Z14langdef_get_inv
libsource-highlight.so.4:_Z14langdef_set_inP8_IO_FILE
libsource-highlight.so.4:_Z14outlangdef_lexv
libsource-highlight.so.4:_Z14stylecsssc_lexv
libsource-highlight.so.4:_Z14stylesc_get_inv
libsource-highlight.so.4:_Z14stylesc_set_inP8_IO_FILE
libsource-highlight.so.4:_Z15langdef_get_outv
libsource-highlight.so.4:_Z15langdef_reallocPvm
libsource-highlight.so.4:_Z15langdef_restartP8_IO_FILE
libsource-highlight.so.4:_Z15langdef_set_outP8_IO_FILE
libsource-highlight.so.4:_Z15outlangdef_freePv
libsource-highlight.so.4:_Z15parseStyleErrorRKNSt7__cxx1112basic_stringIcSt11char_traitsIcESaIcEEE
libsource-highlight.so.4:_Z15stylecsssc_freePv
libsource-highlight.so.4:_Z15stylesc_get_outv
libsource-highlight.so.4:_Z15stylesc_reallocPvm
libsource-highlight.so.4:_Z15stylesc_restartP8_IO_FILE
libsource-highlight.so.4:_Z15stylesc_set_outP8_IO_FILE
libsource-highlight.so.4:_Z15updateTokenInfov
libsource-highlight.so.4:_Z16langdef_get_lengv
libsource-highlight.so.4:_Z16langdef_get_textv
libsource-highlight.so.4:_Z16outlangdef_allocm
libsource-highlight.so.4:_Z16outlangdef_parsev
libsource-highlight.so.4:_Z16stylecsssc_allocm
libsource-highlight.so.4:_Z16stylesc_get_lengv
libsource-highlight.so.4:_Z16stylesc_get_textv
libsource-highlight.so.4:_Z17langdef_get_debugv
libsource-highlight.so.4:_Z17langdef_set_debugi
libsource-highlight.so.4:_Z17outlangdef_get_inv
libsource-highlight.so.4:_Z17outlangdef_set_inP8_IO_FILE
libsource-highlight.so.4:_Z17stylecsssc_get_inv
libsource-highlight.so.4:_Z17stylecsssc_set_inP8_IO_FILE
libsource-highlight.so.4:_Z17stylesc_get_debugv
libsource-highlight.so.4:_Z17stylesc_set_debugi
libsource-highlight.so.4:_Z18_open_file_to_scanRKNSt7__cxx1112basic_stringIcSt11char_traitsIcESaIcEEES6_
libsource-highlight.so.4:_Z18langdef_get_linenov
libsource-highlight.so.4:_Z18langdef_set_linenoi
libsource-highlight.so.4:_Z18outlangdef_get_outv
libsource-highlight.so.4:_Z18outlangdef_reallocPvm
libsource-highlight.so.4:_Z18outlangdef_restartP8_IO_FILE
libsource-highlight.so.4:_Z18outlangdef_set_outP8_IO_FILE
libsource-highlight.so.4:_Z18stylecsssc_get_outv
libsource-highlight.so.4:_Z18stylecsssc_reallocPvm
libsource-highlight.so.4:_Z18stylecsssc_restartP8_IO_FILE
libsource-highlight.so.4:_Z18stylecsssc_set_outP8_IO_FILE
libsource-highlight.so.4:_Z18stylesc_get_linenov
libsource-highlight.so.4:_Z18stylesc_set_linenoi
libsource-highlight.so.4:_Z19langdef__scan_bytesPKci
libsource-highlight.so.4:_Z19langdef_lex_destroyv
libsource-highlight.so.4:_Z19outlangdef_get_lengv
libsource-highlight.so.4:_Z19outlangdef_get_textv
libsource-highlight.so.4:_Z19stylecsssc_get_lengv
libsource-highlight.so.4:_Z19stylecsssc_get_textv
libsource-highlight.so.4:_Z19stylesc__scan_bytesPKci
libsource-highlight.so.4:_Z19stylesc_lex_destroyv
libsource-highlight.so.4:_Z20langdef__scan_bufferPcm
libsource-highlight.so.4:_Z20langdef__scan_stringPKc
libsource-highlight.so.4:_Z20outlangdef_get_debugv
libsource-highlight.so.4:_Z20outlangdef_set_debugi
libsource-highlight.so.4:_Z20stylecsssc_get_debugv
libsource-highlight.so.4:_Z20stylecsssc_set_debugi
libsource-highlight.so.4:_Z20stylesc__scan_bufferPcm
libsource-highlight.so.4:_Z20stylesc__scan_stringPKc
libsource-highlight.so.4:_Z21langdef__flush_bufferP15yy_buffer_state
libsource-highlight.so.4:_Z21outlangdef_get_linenov
libsource-highlight.so.4:_Z21outlangdef_set_linenoi
libsource-highlight.so.4:_Z21stylecsssc_get_linenov
libsource-highlight.so.4:_Z21stylecsssc_set_linenoi
libsource-highlight.so.4:_Z21stylesc__flush_bufferP15yy_buffer_state
libsource-highlight.so.4:_Z22langdef__create_bufferP8_IO_FILEi
libsource-highlight.so.4:_Z22langdef__delete_bufferP15yy_buffer_state
libsource-highlight.so.4:_Z22outlangdef__scan_bytesPKci
libsource-highlight.so.4:_Z22outlangdef_lex_destroyv
libsource-highlight.so.4:_Z22stylecsssc__scan_bytesPKci
libsource-highlight.so.4:_Z22stylecsssc_lex_destroyv
libsource-highlight.so.4:_Z22stylesc__create_bufferP8_IO_FILEi
libsource-highlight.so.4:_Z22stylesc__delete_bufferP15yy_buffer_state
libsource-highlight.so.4:_Z23outlangdef__scan_bufferPcm
libsource-highlight.so.4:_Z23outlangdef__scan_stringPKc
libsource-highlight.so.4:_Z23stylecsssc__scan_bufferPcm
libsource-highlight.so.4:_Z23stylecsssc__scan_stringPKc
libsource-highlight.so.4:_Z24langdef_pop_buffer_statev
libsource-highlight.so.4:_Z24outlangdef__flush_bufferP15yy_buffer_state
libsource-highlight.so.4:_Z24stylecsssc__flush_bufferP15yy_buffer_state
libsource-highlight.so.4:_Z24stylesc_pop_buffer_statev
libsource-highlight.so.4:_Z25langdef__switch_to_bufferP15yy_buffer_state
libsource-highlight.so.4:_Z25langdef_push_buffer_stateP15yy_buffer_state
libsource-highlight.so.4:_Z25outlangdef__create_bufferP8_IO_FILEi
libsource-highlight.so.4:_Z25outlangdef__delete_bufferP15yy_buffer_state
libsource-highlight.so.4:_Z25stylecsssc__create_bufferP8_IO_FILEi
libsource-highlight.so.4:_Z25stylecsssc__delete_bufferP15yy_buffer_state
libsource-highlight.so.4:_Z25stylesc__switch_to_bufferP15yy_buffer_state
libsource-highlight.so.4:_Z25stylesc_push_buffer_stateP15yy_buffer_state
libsource-highlight.so.4:_Z27outlangdef_pop_buffer_statev
libsource-highlight.so.4:_Z27stylecsssc_pop_buffer_statev
libsource-highlight.so.4:_Z28outlangdef__switch_to_bufferP15yy_buffer_state
libsource-highlight.so.4:_Z28outlangdef_push_buffer_stateP15yy_buffer_state
libsource-highlight.so.4:_Z28stylecsssc__switch_to_bufferP15yy_buffer_state
libsource-highlight.so.4:_Z28stylecsssc_push_buffer_stateP15yy_buffer_state
libsource-highlight.so.4:_ZN9srchilite10LineRanges8addRangeERKNSt7__cxx1112basic_stringIcSt11char_traitsIcESaIcEEE
libsource-highlight.so.4:_ZN9srchilite10LineRanges9isInRangeEi
libsource-highlight.so.4:_ZN9srchilite10LineRangesC1Ej
libsource-highlight.so.4:_ZN9srchilite10LineRangesC2Ej
libsource-highlight.so.4:_ZN9srchilite10LineRangesD1Ev
libsource-highlight.so.4:_ZN9srchilite10LineRangesD2Ev
libsource-highlight.so.4:_ZN9srchilite10Untabifier11doPreformatERKNSt7__cxx1112basic_stringIcSt11char_traitsIcESaIcEEE
libsource-highlight.so.4:_ZN9srchilite11DocTemplate10output_endERKNSt7__cxx1112basic_stringIcSt11char_traitsIcESaIcEEES8_S8_S8_S8_S8_S8_
libsource-highlight.so.4:_ZN9srchilite11DocTemplate12output_beginERKNSt7__cxx1112basic_stringIcSt11char_traitsIcESaIcEEES8_S8_S8_S8_S8_S8_
libsource-highlight.so.4:_ZN9srchilite11DocTemplateC1ERKNSt7__cxx1112basic_stringIcSt11char_traitsIcESaIcEEES8_
libsource-highlight.so.4:_ZN9srchilite11DocTemplateC2ERKNSt7__cxx1112basic_stringIcSt11char_traitsIcESaIcEEES8_
libsource-highlight.so.4:_ZN9srchilite11IOExceptionC1ERKNSt7__cxx1112basic_stringIcSt11char_traitsIcESaIcEEES8_
libsource-highlight.so.4:_ZN9srchilite11IOExceptionC2ERKNSt7__cxx1112basic_stringIcSt11char_traitsIcESaIcEEES8_
libsource-highlight.so.4:_ZN9srchilite11IOExceptionD0Ev
libsource-highlight.so.4:_ZN9srchilite11IOExceptionD1Ev
libsource-highlight.so.4:_ZN9srchilite11IOExceptionD2Ev
libsource-highlight.so.4:_ZN9srchilite11RegexRanges13addRegexRangeERKNSt7__cxx1112basic_stringIcSt11char_traitsIcESaIcEEE
libsource-highlight.so.4:_ZN9srchilite11RegexRanges7matchesERKNSt7__cxx1112basic_stringIcSt11char_traitsIcESaIcEEE
libsource-highlight.so.4:_ZN9srchilite11RegexRanges9isInRangeERKNSt7__cxx1112basic_stringIcSt11char_traitsIcESaIcEEE
libsource-highlight.so.4:_ZN9srchilite11RegexRangesC1Ev
libsource-highlight.so.4:_ZN9srchilite11RegexRangesC2Ev
libsource-highlight.so.4:_ZN9srchilite11RegexRangesD1Ev
libsource-highlight.so.4:_ZN9srchilite11RegexRangesD2Ev
libsource-highlight.so.4:_ZN9srchilite11StringTable9newStringERKNSt7__cxx1112basic_stringIcSt11char_traitsIcESaIcEEE
libsource-highlight.so.4:_ZN9srchilite11StringTableC1Ev
libsource-highlight.so.4:_ZN9srchilite11StringTableC2Ev
libsource-highlight.so.4:_ZN9srchilite11StringTableD1Ev
libsource-highlight.so.4:_ZN9srchilite11StringTableD2Ev
libsource-highlight.so.4:_ZN9srchilite11parseStylesERKNSt7__cxx1112basic_stringIcSt11char_traitsIcESaIcEEEPNS_16FormatterFactoryERS5_
libsource-highlight.so.4:_ZN9srchilite11parseStylesERKNSt7__cxx1112basic_stringIcSt11char_traitsIcESaIcEEES7_PNS_16FormatterFactoryERS5_
libsource-highlight.so.4:_ZN9srchilite12CTagsManager11runCTagsCmdEv
libsource-highlight.so.4:_ZN9srchilite12CTagsManager20createCTagsFormatterERKNS_10TextStyles12RefTextStyleE
libsource-highlight.so.4:_ZN9srchilite12CTagsManagerC1ERKNSt7__cxx1112basic_stringIcSt11char_traitsIcESaIcEEES8_bNS_11RefPositionE
libsource-highlight.so.4:_ZN9srchilite12CTagsManagerC2ERKNSt7__cxx1112basic_stringIcSt11char_traitsIcESaIcEEES8_bNS_11RefPositionE
libsource-highlight.so.4:_ZN9srchilite12CTagsManagerD1Ev
libsource-highlight.so.4:_ZN9srchilite12CTagsManagerD2Ev
libsource-highlight.so.4:_ZN9srchilite12DocGenerator16generate_end_docEPSo
libsource-highlight.so.4:_ZN9srchilite12DocGenerator18generate_start_docEPSo
libsource-highlight.so.4:_ZN9srchilite12PreFormatter11doPreformatERKNSt7__cxx1112basic_stringIcSt11char_traitsIcESaIcEEE
libsource-highlight.so.4:_ZN9srchilite12PreFormatter15setPreFormatterEN5boost10shared_ptrIS0_EE
libsource-highlight.so.4:_ZN9srchilite12PreFormatter9preformatERKNSt7__cxx1112basic_stringIcSt11char_traitsIcESaIcEEE
libsource-highlight.so.4:_ZN9srchilite12PreFormatterC1EN5boost10shared_ptrIS0_EE
libsource-highlight.so.4:_ZN9srchilite12PreFormatterC2EN5boost10shared_ptrIS0_EE
libsource-highlight.so.4:_ZN9srchilite12PreFormatterD0Ev
libsource-highlight.so.4:_ZN9srchilite12PreFormatterD1Ev
libsource-highlight.so.4:_ZN9srchilite12PreFormatterD2Ev
libsource-highlight.so.4:_ZN9srchilite13DebugListener4stepEv
libsource-highlight.so.4:_ZN9srchilite13DebugListener6notifyERKNS_14HighlightEventE
libsource-highlight.so.4:_ZN9srchilite13DebugListenerC1ERSo
libsource-highlight.so.4:_ZN9srchilite13DebugListenerC2ERSo
libsource-highlight.so.4:_ZN9srchilite13DebugListenerD0Ev
libsource-highlight.so.4:_ZN9srchilite13DebugListenerD1Ev
libsource-highlight.so.4:_ZN9srchilite13DebugListenerD2Ev
libsource-highlight.so.4:_ZN9srchilite13HighlightRule10tryToMatchERKNSt7__cxx1112basic_stringIcSt11char_traitsIcESaIcEEERNS_14HighlightTokenERKNS_18MatchingParametersE
libsource-highlight.so.4:_ZN9srchilite13HighlightRule7addElemERKNSt7__cxx1112basic_stringIcSt11char_traitsIcESaIcEEE
libsource-highlight.so.4:_ZN9srchilite13HighlightRuleC1ERKNSt7__cxx1112basic_stringIcSt11char_traitsIcESaIcEEE
libsource-highlight.so.4:_ZN9srchilite13HighlightRuleC1Ev
libsource-highlight.so.4:_ZN9srchilite13HighlightRuleC2ERKNSt7__cxx1112basic_stringIcSt11char_traitsIcESaIcEEE
libsource-highlight.so.4:_ZN9srchilite13HighlightRuleC2Ev
libsource-highlight.so.4:_ZN9srchilite13HighlightRuleD0Ev
libsource-highlight.so.4:_ZN9srchilite13HighlightRuleD1Ev
libsource-highlight.so.4:_ZN9srchilite13HighlightRuleD2Ev
libsource-highlight.so.4:_ZN9srchilite13LanguageInfer5inferB5cxx11ERSi
libsource-highlight.so.4:_ZN9srchilite13LanguageInfer5inferERKNSt7__cxx1112basic_stringIcSt11char_traitsIcESaIcEEE
libsource-highlight.so.4:_ZN9srchilite13LanguageInferC1Ev
libsource-highlight.so.4:_ZN9srchilite13LanguageInferC2Ev
libsource-highlight.so.4:_ZN9srchilite13LanguageInferD1Ev
libsource-highlight.so.4:_ZN9srchilite13LanguageInferD2Ev
libsource-highlight.so.4:_ZN9srchilite13StateLangElem14dispatch_buildEPNS_21HighlightStateBuilderEPNS_14HighlightStateE
libsource-highlight.so.4:_ZN9srchilite13StateLangElem22dispatch_collect_constEPNS_16LangElemsPrinterE
libsource-highlight.so.4:_ZN9srchilite13StateLangElemC1ERKNSt7__cxx1112basic_stringIcSt11char_traitsIcESaIcEEEPNS_18StateStartLangElemEPNS_9LangElemsEb
libsource-highlight.so.4:_ZN9srchilite13StateLangElemC2ERKNSt7__cxx1112basic_stringIcSt11char_traitsIcESaIcEEEPNS_18StateStartLangElemEPNS_9LangElemsEb
libsource-highlight.so.4:_ZN9srchilite13StateLangElemD0Ev
libsource-highlight.so.4:_ZN9srchilite13StateLangElemD1Ev
libsource-highlight.so.4:_ZN9srchilite13StateLangElemD2Ev
libsource-highlight.so.4:_ZN9srchilite13WordTokenizer8tokenizeERKNSt7__cxx1112basic_stringIcSt11char_traitsIcESaIcEEERNS1_4listISt4pairIS6_S6_ESaISB_EEE
libsource-highlight.so.4:_ZN9srchilite13contains_pathERKNSt7__cxx1112basic_stringIcSt11char_traitsIcESaIcEEE
libsource-highlight.so.4:_ZN9srchilite13get_file_pathERKNSt7__cxx1112basic_stringIcSt11char_traitsIcESaIcEEE
libsource-highlight.so.4:_ZN9srchilite14BufferedOutput12writePostDocERKNSt7__cxx1112basic_stringIcSt11char_traitsIcESaIcEEE
libsource-highlight.so.4:_ZN9srchilite14BufferedOutput13postDocInsertERKNSt7__cxx1112basic_stringIcSt11char_traitsIcESaIcEEE
libsource-highlight.so.4:_ZN9srchilite14BufferedOutput13writePostInfoERSt3setINSt7__cxx1112basic_stringIcSt11char_traitsIcESaIcEEESt4lessIS7_ESaIS7_EERKS7_
libsource-highlight.so.4:_ZN9srchilite14BufferedOutput13writePostLineERKNSt7__cxx1112basic_stringIcSt11char_traitsIcESaIcEEE
libsource-highlight.so.4:_ZN9srchilite14BufferedOutput14postLineInsertERKNSt7__cxx1112basic_stringIcSt11char_traitsIcESaIcEEE
libsource-highlight.so.4:_ZN9srchilite14BufferedOutput6outputERKNSt7__cxx1112basic_stringIcSt11char_traitsIcESaIcEEE
libsource-highlight.so.4:_ZN9srchilite14BufferedOutputC1ERSo
libsource-highlight.so.4:_ZN9srchilite14BufferedOutputC2ERSo
libsource-highlight.so.4:_ZN9srchilite14BufferedOutputD1Ev
libsource-highlight.so.4:_ZN9srchilite14BufferedOutputD2Ev
libsource-highlight.so.4:_ZN9srchilite14CTagsCollector11collectTagsERKNSt7__cxx1112basic_stringIcSt11char_traitsIcESaIcEEERNS1_4listINS_9CTagsInfoESaISA_EEEPKNS_15FormatterParamsE
libsource-highlight.so.4:_ZN9srchilite14CTagsCollectorC1ERKNSt7__cxx1112basic_stringIcSt11char_traitsIcESaIcEEENS_11RefPositionE
libsource-highlight.so.4:_ZN9srchilite14CTagsCollectorC2ERKNSt7__cxx1112basic_stringIcSt11char_traitsIcESaIcEEENS_11RefPositionE
libsource-highlight.so.4:_ZN9srchilite14CTagsCollectorD1Ev
libsource-highlight.so.4:_ZN9srchilite14CTagsCollectorD2Ev
libsource-highlight.so.4:_ZN9srchilite14CTagsFormatter11formatCTagsERKNSt7__cxx1112basic_stringIcSt11char_traitsIcESaIcEEERNS_21CTagsFormatterResultsEPKNS_15FormatterParamsE
libsource-highlight.so.4:_ZN9srchilite14CTagsFormatter11setFileInfoERKNSt7__cxx1112basic_stringIcSt11char_traitsIcESaIcEEES8_
libsource-highlight.so.4:_ZN9srchilite14CTagsFormatterC1EPNS_12PreFormatterERKNS_10TextStyles12RefTextStyleEPNS_14CTagsCollectorE
libsource-highlight.so.4:_ZN9srchilite14CTagsFormatterC2EPNS_12PreFormatterERKNS_10TextStyles12RefTextStyleEPNS_14CTagsCollectorE
libsource-highlight.so.4:_ZN9srchilite14CTagsFormatterD1Ev
libsource-highlight.so.4:_ZN9srchilite14CTagsFormatterD2Ev
libsource-highlight.so.4:_ZN9srchilite14CharTranslator11doPreformatERKNSt7__cxx1112basic_stringIcSt11char_traitsIcESaIcEEE
libsource-highlight.so.4:_ZN9srchilite14CharTranslator15set_translationERKNSt7__cxx1112basic_stringIcSt11char_traitsIcESaIcEEES8_
libsource-highlight.so.4:_ZN9srchilite14CharTranslatorC1EN5boost10shared_ptrINS_12PreFormatterEEE
libsource-highlight.so.4:_ZN9srchilite14CharTranslatorC2EN5boost10shared_ptrINS_12PreFormatterEEE
libsource-highlight.so.4:_ZN9srchilite14CharTranslatorD0Ev
libsource-highlight.so.4:_ZN9srchilite14CharTranslatorD1Ev
libsource-highlight.so.4:_ZN9srchilite14CharTranslatorD2Ev
libsource-highlight.so.4:_ZN9srchilite14HighlightState10betterThanERKNS_14HighlightTokenES3_
libsource-highlight.so.4:_ZN9srchilite14HighlightState11replaceRuleEmN5boost10shared_ptrINS_13HighlightRuleEEE
libsource-highlight.so.4:_ZN9srchilite14HighlightState17replaceReferencesERKSt6vectorINSt7__cxx1112basic_stringIcSt11char_traitsIcESaIcEEESaIS7_EE
libsource-highlight.so.4:_ZN9srchilite14HighlightState7addRuleEN5boost10shared_ptrINS_13HighlightRuleEEE
libsource-highlight.so.4:_ZN9srchilite14HighlightStateC1ERKNSt7__cxx1112basic_stringIcSt11char_traitsIcESaIcEEE
libsource-highlight.so.4:_ZN9srchilite14HighlightStateC1ERKS0_
libsource-highlight.so.4:_ZN9srchilite14HighlightStateC2ERKNSt7__cxx1112basic_stringIcSt11char_traitsIcESaIcEEE
libsource-highlight.so.4:_ZN9srchilite14HighlightStateC2ERKS0_
libsource-highlight.so.4:_ZN9srchilite14HighlightStateD1Ev
libsource-highlight.so.4:_ZN9srchilite14HighlightStateD2Ev
libsource-highlight.so.4:_ZN9srchilite14HighlightToken10addMatchedERKNSt7__cxx1112basic_stringIcSt11char_traitsIcESaIcEEES8_
libsource-highlight.so.4:_ZN9srchilite14HighlightToken12clearMatchedEv
libsource-highlight.so.4:_ZN9srchilite14HighlightTokenC1EPKNS_13HighlightRuleE
libsource-highlight.so.4:_ZN9srchilite14HighlightTokenC1ERKNSt7__cxx1112basic_stringIcSt11char_traitsIcESaIcEEES8_S8_PKNS_13HighlightRuleE
libsource-highlight.so.4:_ZN9srchilite14HighlightTokenC2EPKNS_13HighlightRuleE
libsource-highlight.so.4:_ZN9srchilite14HighlightTokenC2ERKNSt7__cxx1112basic_stringIcSt11char_traitsIcESaIcEEES8_S8_PKNS_13HighlightRuleE
libsource-highlight.so.4:_ZN9srchilite14HighlightTokenD1Ev
libsource-highlight.so.4:_ZN9srchilite14HighlightTokenD2Ev
libsource-highlight.so.4:_ZN9srchilite14LangDefManager12getLangElemsERKNSt7__cxx1112basic_stringIcSt11char_traitsIcESaIcEEES8_
libsource-highlight.so.4:_ZN9srchilite14LangDefManager17getHighlightStateERKNSt7__cxx1112basic_stringIcSt11char_traitsIcESaIcEEE
libsource-highlight.so.4:_ZN9srchilite14LangDefManager17getHighlightStateERKNSt7__cxx1112basic_stringIcSt11char_traitsIcESaIcEEES8_
libsource-highlight.so.4:_ZN9srchilite14LangDefManager19buildHighlightStateERKNSt7__cxx1112basic_stringIcSt11char_traitsIcESaIcEEES8_
libsource-highlight.so.4:_ZN9srchilite14LangDefManagerC1EPNS_20HighlightRuleFactoryE
libsource-highlight.so.4:_ZN9srchilite14LangDefManagerC2EPNS_20HighlightRuleFactoryE
libsource-highlight.so.4:_ZN9srchilite14LangDefManagerD1Ev
libsource-highlight.so.4:_ZN9srchilite14LangDefManagerD2Ev
libsource-highlight.so.4:_ZN9srchilite14VarDefinitions3addERKNSt7__cxx1112basic_stringIcSt11char_traitsIcESaIcEEEPKNS_10StringDefsE
libsource-highlight.so.4:_ZN9srchilite14VarDefinitions6getVarERKNSt7__cxx1112basic_stringIcSt11char_traitsIcESaIcEEE
libsource-highlight.so.4:_ZN9srchilite14VarDefinitions8containsERKNSt7__cxx1112basic_stringIcSt11char_traitsIcESaIcEEE
libsource-highlight.so.4:_ZN9srchilite14VarDefinitionsC1Ev
libsource-highlight.so.4:_ZN9srchilite14VarDefinitionsC2Ev
libsource-highlight.so.4:_ZN9srchilite14VarDefinitionsD1Ev
libsource-highlight.so.4:_ZN9srchilite14VarDefinitionsD2Ev
libsource-highlight.so.4:_ZN9srchilite14get_line_countERSi
libsource-highlight.so.4:_ZN9srchilite14guessEmacsModeERKNSt7__cxx1112basic_stringIcSt11char_traitsIcESaIcEEE
libsource-highlight.so.4:_ZN9srchilite14parseCssStylesERKNSt7__cxx1112basic_stringIcSt11char_traitsIcESaIcEEES7_PNS_16FormatterFactoryERS5_
libsource-highlight.so.4:_ZN9srchilite14parse_lang_defEPKcS1_
libsource-highlight.so.4:_ZN9srchilite14parse_lang_defEv
libsource-highlight.so.4:_ZN9srchilite15ParserExceptionC1ERKNSt7__cxx1112basic_stringIcSt11char_traitsIcESaIcEEEPKNS_11ParseStructE
libsource-highlight.so.4:_ZN9srchilite15ParserExceptionC1ERKNSt7__cxx1112basic_stringIcSt11char_traitsIcESaIcEEES8_j
libsource-highlight.so.4:_ZN9srchilite15ParserExceptionC2ERKNSt7__cxx1112basic_stringIcSt11char_traitsIcESaIcEEEPKNS_11ParseStructE
libsource-highlight.so.4:_ZN9srchilite15ParserExceptionC2ERKNSt7__cxx1112basic_stringIcSt11char_traitsIcESaIcEEES8_j
libsource-highlight.so.4:_ZN9srchilite15ParserExceptionD0Ev
libsource-highlight.so.4:_ZN9srchilite15ParserExceptionD1Ev
libsource-highlight.so.4:_ZN9srchilite15ParserExceptionD2Ev
libsource-highlight.so.4:_ZN9srchilite15SourceHighlight10initializeEv
libsource-highlight.so.4:_ZN9srchilite15SourceHighlight12checkLangDefERKNSt7__cxx1112basic_stringIcSt11char_traitsIcESaIcEEE
libsource-highlight.so.4:_ZN9srchilite15SourceHighlight14printLangElemsERKNSt7__cxx1112basic_stringIcSt11char_traitsIcESaIcEEERSo
libsource-highlight.so.4:_ZN9srchilite15SourceHighlight15checkOutLangDefERKNSt7__cxx1112basic_stringIcSt11char_traitsIcESaIcEEE
libsource-highlight.so.4:_ZN9srchilite15SourceHighlight19printHighlightStateERKNSt7__cxx1112basic_stringIcSt11char_traitsIcESaIcEEERSo
libsource-highlight.so.4:_ZN9srchilite15SourceHighlight20createOutputFileNameERKNSt7__cxx1112basic_stringIcSt11char_traitsIcESaIcEEE
libsource-highlight.so.4:_ZN9srchilite15SourceHighlight20updateBufferedOutputEPNS_14BufferedOutputE
libsource-highlight.so.4:_ZN9srchilite15SourceHighlight9highlightERKNSt7__cxx1112basic_stringIcSt11char_traitsIcESaIcEEES8_S8_
libsource-highlight.so.4:_ZN9srchilite15SourceHighlight9highlightERSiRSoRKNSt7__cxx1112basic_stringIcSt11char_traitsIcESaIcEEESA_
libsource-highlight.so.4:_ZN9srchilite15SourceHighlightC1ERKNSt7__cxx1112basic_stringIcSt11char_traitsIcESaIcEEE
libsource-highlight.so.4:_ZN9srchilite15SourceHighlightC2ERKNSt7__cxx1112basic_stringIcSt11char_traitsIcESaIcEEE
libsource-highlight.so.4:_ZN9srchilite15SourceHighlightD1Ev
libsource-highlight.so.4:_ZN9srchilite15SourceHighlightD2Ev
libsource-highlight.so.4:_ZN9srchilite15StyleFileParser14parseStyleFileERKNSt7__cxx1112basic_stringIcSt11char_traitsIcESaIcEEEPNS_16FormatterFactoryERS6_
libsource-highlight.so.4:_ZN9srchilite15StyleFileParser14parseStyleFileERKNSt7__cxx1112basic_stringIcSt11char_traitsIcESaIcEEES8_PNS_16FormatterFactoryERS6_
libsource-highlight.so.4:_ZN9srchilite15StyleFileParser17parseCssStyleFileERKNSt7__cxx1112basic_stringIcSt11char_traitsIcESaIcEEEPNS_16FormatterFactoryERS6_
libsource-highlight.so.4:_ZN9srchilite15StyleFileParser17parseCssStyleFileERKNSt7__cxx1112basic_stringIcSt11char_traitsIcESaIcEEES8_PNS_16FormatterFactoryERS6_
libsource-highlight.so.4:_ZN9srchilite15strip_file_pathERKNSt7__cxx1112basic_stringIcSt11char_traitsIcESaIcEEE
libsource-highlight.so.4:_ZN9srchilite16FormatterManager12addFormatterERKNSt7__cxx1112basic_stringIcSt11char_traitsIcESaIcEEEN5boost10shared_ptrINS_9FormatterEEE
libsource-highlight.so.4:_ZN9srchilite16FormatterManagerC1EN5boost10shared_ptrINS_9FormatterEEE
libsource-highlight.so.4:_ZN9srchilite16FormatterManagerC2EN5boost10shared_ptrINS_9FormatterEEE
libsource-highlight.so.4:_ZN9srchilite16FormatterManagerD1Ev
libsource-highlight.so.4:_ZN9srchilite16FormatterManagerD2Ev
libsource-highlight.so.4:_ZN9srchilite16LangElemsPrinter10collect_DBEPKNS_8LangElemE
libsource-highlight.so.4:_ZN9srchilite16LangElemsPrinter10collect_DBEPKNS_9LangElemsE
libsource-highlight.so.4:_ZN9srchilite16LangElemsPrinter5printEPKNS_9LangElemsERSo
libsource-highlight.so.4:_ZN9srchilite16LangElemsPrinter7collectEPKNS_13StateLangElemE
libsource-highlight.so.4:_ZN9srchilite16LangElemsPrinter7collectEPKNS_20NamedSubExpsLangElemE
libsource-highlight.so.4:_ZN9srchilite16LangElemsPrinter7collectEPKNS_8LangElemE
libsource-highlight.so.4:_ZN9srchilite16LangElemsPrinter7collectEPKNS_9LangElemsE
libsource-highlight.so.4:_ZN9srchilite16LangElemsPrinterC1Ev
libsource-highlight.so.4:_ZN9srchilite16LangElemsPrinterC2Ev
libsource-highlight.so.4:_ZN9srchilite16LangElemsPrinterD0Ev
libsource-highlight.so.4:_ZN9srchilite16LangElemsPrinterD1Ev
libsource-highlight.so.4:_ZN9srchilite16LangElemsPrinterD2Ev
libsource-highlight.so.4:_ZN9srchilite16LineNumGenerator12generateLineB5cxx11Ej
libsource-highlight.so.4:_ZN9srchilite16LineNumGeneratorC1ERKNS_9TextStyleEjc
libsource-highlight.so.4:_ZN9srchilite16LineNumGeneratorC2ERKNS_9TextStyleEjc
libsource-highlight.so.4:_ZN9srchilite16LineNumGeneratorD1Ev
libsource-highlight.so.4:_ZN9srchilite16LineNumGeneratorD2Ev
libsource-highlight.so.4:_ZN9srchilite16RegexRuleFactory14createLineRuleERKNSt7__cxx1112basic_stringIcSt11char_traitsIcESaIcEEES8_S8_S8_b
libsource-highlight.so.4:_ZN9srchilite16RegexRuleFactory14createListRuleERKNSt7__cxx1112basic_stringIcSt11char_traitsIcESaIcEEERKNS1_4listIS6_SaIS6_EEEb
libsource-highlight.so.4:_ZN9srchilite16RegexRuleFactory16createSimpleRuleERKNSt7__cxx1112basic_stringIcSt11char_traitsIcESaIcEEES8_
libsource-highlight.so.4:_ZN9srchilite16RegexRuleFactory18createCompoundRuleERKNSt7__cxx114listINS1_12basic_stringIcSt11char_traitsIcESaIcEEESaIS7_EEERKS7_
libsource-highlight.so.4:_ZN9srchilite16RegexRuleFactory18createWordListRuleERKNSt7__cxx1112basic_stringIcSt11char_traitsIcESaIcEEERKNS1_4listIS6_SaIS6_EEEb
libsource-highlight.so.4:_ZN9srchilite16RegexRuleFactory19createMultiLineRuleERKNSt7__cxx1112basic_stringIcSt11char_traitsIcESaIcEEES8_S8_S8_b
libsource-highlight.so.4:_ZN9srchilite16RegexRuleFactoryC1Ev
libsource-highlight.so.4:_ZN9srchilite16RegexRuleFactoryC2Ev
libsource-highlight.so.4:_ZN9srchilite16RegexRuleFactoryD0Ev
libsource-highlight.so.4:_ZN9srchilite16RegexRuleFactoryD1Ev
libsource-highlight.so.4:_ZN9srchilite16RegexRuleFactoryD2Ev
libsource-highlight.so.4:_ZN9srchilite16TextStyleBuilder3addERKNS_9TextStyleE
libsource-highlight.so.4:_ZN9srchilite16TextStyleBuilder3endEv
libsource-highlight.so.4:_ZN9srchilite16TextStyleBuilder5startEv
libsource-highlight.so.4:_ZN9srchilite16TextStyleBuilderC1ERKNSt7__cxx1112basic_stringIcSt11char_traitsIcESaIcEEES8_
libsource-highlight.so.4:_ZN9srchilite16TextStyleBuilderC2ERKNSt7__cxx1112basic_stringIcSt11char_traitsIcESaIcEEES8_
libsource-highlight.so.4:_ZN9srchilite16open_file_streamERKNSt7__cxx1112basic_stringIcSt11char_traitsIcESaIcEEE
libsource-highlight.so.4:_ZN9srchilite17DelimitedLangElem14dispatch_buildEPNS_21HighlightStateBuilderEPNS_14HighlightStateE
libsource-highlight.so.4:_ZN9srchilite17DelimitedLangElemC1ERKNSt7__cxx1112basic_stringIcSt11char_traitsIcESaIcEEEPNS_9StringDefESA_SA_bb
libsource-highlight.so.4:_ZN9srchilite17DelimitedLangElemC2ERKNSt7__cxx1112basic_stringIcSt11char_traitsIcESaIcEEEPNS_9StringDefESA_SA_bb
libsource-highlight.so.4:_ZN9srchilite17DelimitedLangElemD0Ev
libsource-highlight.so.4:_ZN9srchilite17DelimitedLangElemD1Ev
libsource-highlight.so.4:_ZN9srchilite17DelimitedLangElemD2Ev
libsource-highlight.so.4:_ZN9srchilite17RegexPreProcessor10preprocessERKNSt7__cxx1112basic_stringIcSt11char_traitsIcESaIcEEE
libsource-highlight.so.4:_ZN9srchilite17RegexPreProcessor17make_nonsensitiveERKNSt7__cxx1112basic_stringIcSt11char_traitsIcESaIcEEE
libsource-highlight.so.4:_ZN9srchilite17RegexPreProcessor17num_of_referencesERKNSt7__cxx1112basic_stringIcSt11char_traitsIcESaIcEEE
libsource-highlight.so.4:_ZN9srchilite17RegexPreProcessor18replace_referencesERKNSt7__cxx1112basic_stringIcSt11char_traitsIcESaIcEEERKN5boost13match_resultsIN9__gnu_cxx17__normal_iteratorIPKcS6_EESaINS9_9sub_matchISF_EEEEE
libsource-highlight.so.4:_ZN9srchilite17RegexPreProcessor18replace_referencesERKNSt7__cxx1112basic_stringIcSt11char_traitsIcESaIcEEERKSt6vectorIS6_SaIS6_EE
libsource-highlight.so.4:_ZN9srchilite17RegexPreProcessor21num_of_backreferencesERKNSt7__cxx1112basic_stringIcSt11char_traitsIcESaIcEEE
libsource-highlight.so.4:_ZN9srchilite17RegexPreProcessor21num_of_subexpressionsERKNSt7__cxx1112basic_stringIcSt11char_traitsIcESaIcEEE
libsource-highlight.so.4:_ZN9srchilite17RegexPreProcessor22replace_backreferencesERKNSt7__cxx1112basic_stringIcSt11char_traitsIcESaIcEEERKN5boost13match_resultsIN9__gnu_cxx17__normal_iteratorIPKcS6_EESaINS9_9sub_matchISF_EEEEE
libsource-highlight.so.4:_ZN9srchilite17RegexPreProcessor22replace_backreferencesERKNSt7__cxx1112basic_stringIcSt11char_traitsIcESaIcEEERKSt6vectorIS6_SaIS6_EE
libsource-highlight.so.4:_ZN9srchilite17RegexPreProcessor23contains_backreferencesERKNSt7__cxx1112basic_stringIcSt11char_traitsIcESaIcEEE
libsource-highlight.so.4:_ZN9srchilite17RegexPreProcessor27split_marked_subexpressionsERKNSt7__cxx1112basic_stringIcSt11char_traitsIcESaIcEEE
libsource-highlight.so.4:_ZN9srchilite17RegexPreProcessor28num_of_marked_subexpressionsERKNSt7__cxx1112basic_stringIcSt11char_traitsIcESaIcEEEbb
libsource-highlight.so.4:_ZN9srchilite17RegexPreProcessorC1Ev
libsource-highlight.so.4:_ZN9srchilite17RegexPreProcessorC2Ev
libsource-highlight.so.4:_ZN9srchilite17RegexPreProcessorD1Ev
libsource-highlight.so.4:_ZN9srchilite17RegexPreProcessorD2Ev
libsource-highlight.so.4:_ZN9srchilite17SourceHighlighter10enterStateEN5boost10shared_ptrINS_14HighlightStateEEE
libsource-highlight.so.4:_ZN9srchilite17SourceHighlighter12getNextStateERKNS_14HighlightTokenE
libsource-highlight.so.4:_ZN9srchilite17SourceHighlighter15clearStateStackEv
libsource-highlight.so.4:_ZN9srchilite17SourceHighlighter18highlightParagraphERKNSt7__cxx1112basic_stringIcSt11char_traitsIcESaIcEEE
libsource-highlight.so.4:_ZN9srchilite17SourceHighlighter5flushEv
libsource-highlight.so.4:_ZN9srchilite17SourceHighlighter6formatERKNSt7__cxx1112basic_stringIcSt11char_traitsIcESaIcEEES8_
libsource-highlight.so.4:_ZN9srchilite17SourceHighlighter7exitAllEv
libsource-highlight.so.4:_ZN9srchilite17SourceHighlighter9exitStateEi
libsource-highlight.so.4:_ZN9srchilite17SourceHighlighterC1EN5boost10shared_ptrINS_14HighlightStateEEE
libsource-highlight.so.4:_ZN9srchilite17SourceHighlighterC2EN5boost10shared_ptrINS_14HighlightStateEEE
libsource-highlight.so.4:_ZN9srchilite17SourceHighlighterD1Ev
libsource-highlight.so.4:_ZN9srchilite17SourceHighlighterD2Ev
libsource-highlight.so.4:_ZN9srchilite17open_file_istreamERKNSt7__cxx1112basic_stringIcSt11char_traitsIcESaIcEEE
libsource-highlight.so.4:_ZN9srchilite17open_file_to_scanERKNSt7__cxx1112basic_stringIcSt11char_traitsIcESaIcEEES7_
libsource-highlight.so.4:_ZN9srchilite17parse_outlang_defEPKcS1_
libsource-highlight.so.4:_ZN9srchilite17parse_outlang_defEv
libsource-highlight.so.4:_ZN9srchilite18RegexHighlightRule10tryToMatchEN9__gnu_cxx17__normal_iteratorIPKcNSt7__cxx1112basic_stringIcSt11char_traitsIcESaIcEEEEESB_RNS_14HighlightTokenERKNS_18MatchingParametersE
libsource-highlight.so.4:_ZN9srchilite18RegexHighlightRule17replaceReferencesERKSt6vectorINSt7__cxx1112basic_stringIcSt11char_traitsIcESaIcEEESaIS7_EE
libsource-highlight.so.4:_ZN9srchilite18RegexHighlightRule5cloneEv
libsource-highlight.so.4:_ZN9srchilite18RegexHighlightRule9setRegExpERKNSt7__cxx1112basic_stringIcSt11char_traitsIcESaIcEEE
libsource-highlight.so.4:_ZN9srchilite18RegexHighlightRuleC1ERKNSt7__cxx1112basic_stringIcSt11char_traitsIcESaIcEEE
libsource-highlight.so.4:_ZN9srchilite18RegexHighlightRuleC1ERKNSt7__cxx1112basic_stringIcSt11char_traitsIcESaIcEEES8_
libsource-highlight.so.4:_ZN9srchilite18RegexHighlightRuleC2ERKNSt7__cxx1112basic_stringIcSt11char_traitsIcESaIcEEE
libsource-highlight.so.4:_ZN9srchilite18RegexHighlightRuleC2ERKNSt7__cxx1112basic_stringIcSt11char_traitsIcESaIcEEES8_
libsource-highlight.so.4:_ZN9srchilite18RegexHighlightRuleD0Ev
libsource-highlight.so.4:_ZN9srchilite18RegexHighlightRuleD1Ev
libsource-highlight.so.4:_ZN9srchilite18RegexHighlightRuleD2Ev
libsource-highlight.so.4:_ZN9srchilite18StateStartLangElemC1ERKNSt7__cxx1112basic_stringIcSt11char_traitsIcESaIcEEEjb
libsource-highlight.so.4:_ZN9srchilite18StateStartLangElemC2ERKNSt7__cxx1112basic_stringIcSt11char_traitsIcESaIcEEEjb
libsource-highlight.so.4:_ZN9srchilite18StateStartLangElemD0Ev
libsource-highlight.so.4:_ZN9srchilite18StateStartLangElemD1Ev
libsource-highlight.so.4:_ZN9srchilite18StateStartLangElemD2Ev
libsource-highlight.so.4:_ZN9srchilite18StringListLangElem14dispatch_buildEPNS_21HighlightStateBuilderEPNS_14HighlightStateE
libsource-highlight.so.4:_ZN9srchilite18StringListLangElemC1ERKNSt7__cxx1112basic_stringIcSt11char_traitsIcESaIcEEEPNS_10StringDefsEb
libsource-highlight.so.4:_ZN9srchilite18StringListLangElemC2ERKNSt7__cxx1112basic_stringIcSt11char_traitsIcESaIcEEEPNS_10StringDefsEb
libsource-highlight.so.4:_ZN9srchilite18StringListLangElemD0Ev
libsource-highlight.so.4:_ZN9srchilite18StringListLangElemD1Ev
libsource-highlight.so.4:_ZN9srchilite18StringListLangElemD2Ev
libsource-highlight.so.4:_ZN9srchilite18TextStyleFormatter16formatReferencesERKNSt7__cxx1112basic_stringIcSt11char_traitsIcESaIcEEEPKNS_15FormatterParamsE
libsource-highlight.so.4:_ZN9srchilite18TextStyleFormatter6formatERKNSt7__cxx1112basic_stringIcSt11char_traitsIcESaIcEEEPKNS_15FormatterParamsE
libsource-highlight.so.4:_ZN9srchilite18TextStyleFormatter8doFormatERKNSt7__cxx1112basic_stringIcSt11char_traitsIcESaIcEEEb
libsource-highlight.so.4:_ZN9srchilite18TextStyleFormatterC1ERKNS_9TextStyleEPNS_14BufferedOutputE
libsource-highlight.so.4:_ZN9srchilite18TextStyleFormatterC1ERKNSt7__cxx1112basic_stringIcSt11char_traitsIcESaIcEEEPNS_14BufferedOutputE
libsource-highlight.so.4:_ZN9srchilite18TextStyleFormatterC2ERKNS_9TextStyleEPNS_14BufferedOutputE
libsource-highlight.so.4:_ZN9srchilite18TextStyleFormatterC2ERKNSt7__cxx1112basic_stringIcSt11char_traitsIcESaIcEEEPNS_14BufferedOutputE
libsource-highlight.so.4:_ZN9srchilite18_make_nonsensitiveERKNSt7__cxx1112basic_stringIcSt11char_traitsIcESaIcEEE
libsource-highlight.so.4:_ZN9srchilite18get_file_extensionERKNSt7__cxx1112basic_stringIcSt11char_traitsIcESaIcEEE
libsource-highlight.so.4:_ZN9srchilite19get_input_file_nameERKNSt7__cxx1112basic_stringIcSt11char_traitsIcESaIcEEE
libsource-highlight.so.4:_ZN9srchilite20HighlightRuleFactoryC1Ev
libsource-highlight.so.4:_ZN9srchilite20HighlightRuleFactoryC2Ev
libsource-highlight.so.4:_ZN9srchilite20HighlightRuleFactoryD0Ev
libsource-highlight.so.4:_ZN9srchilite20HighlightRuleFactoryD1Ev
libsource-highlight.so.4:_ZN9srchilite20HighlightRuleFactoryD2Ev
libsource-highlight.so.4:_ZN9srchilite20NamedSubExpsLangElem14dispatch_buildEPNS_21HighlightStateBuilderEPNS_14HighlightStateE
libsource-highlight.so.4:_ZN9srchilite20NamedSubExpsLangElem22dispatch_collect_constEPNS_16LangElemsPrinterE
libsource-highlight.so.4:_ZN9srchilite20NamedSubExpsLangElemC1EPKNSt7__cxx114listINS1_12basic_stringIcSt11char_traitsIcESaIcEEESaIS7_EEEPNS_9StringDefEbb
libsource-highlight.so.4:_ZN9srchilite20NamedSubExpsLangElemC2EPKNSt7__cxx114listINS1_12basic_stringIcSt11char_traitsIcESaIcEEESaIS7_EEEPNS_9StringDefEbb
libsource-highlight.so.4:_ZN9srchilite20NamedSubExpsLangElemD0Ev
libsource-highlight.so.4:_ZN9srchilite20NamedSubExpsLangElemD1Ev
libsource-highlight.so.4:_ZN9srchilite20NamedSubExpsLangElemD2Ev
libsource-highlight.so.4:_ZN9srchilite20SourceHighlightUtils12getFileNamesENSt7__cxx1112basic_stringIcSt11char_traitsIcESaIcEEES6_
libsource-highlight.so.4:_ZN9srchilite20SourceHighlightUtils16getLangFileNamesENSt7__cxx1112basic_stringIcSt11char_traitsIcESaIcEEE
libsource-highlight.so.4:_ZN9srchilite20SourceHighlightUtils17getStyleFileNamesENSt7__cxx1112basic_stringIcSt11char_traitsIcESaIcEEE
libsource-highlight.so.4:_ZN9srchilite20SourceHighlightUtils19getOutLangFileNamesENSt7__cxx1112basic_stringIcSt11char_traitsIcESaIcEEE
libsource-highlight.so.4:_ZN9srchilite20SourceHighlightUtils20getCssStyleFileNamesENSt7__cxx1112basic_stringIcSt11char_traitsIcESaIcEEE
libsource-highlight.so.4:_ZN9srchilite20clear_langdefscannerEv
libsource-highlight.so.4:_ZN9srchilite20createOutputFileNameERKNSt7__cxx1112basic_stringIcSt11char_traitsIcESaIcEEES7_S7_
libsource-highlight.so.4:_ZN9srchilite21HighlightStateBuilder5buildEPNS_13StateLangElemEPNS_14HighlightStateE
libsource-highlight.so.4:_ZN9srchilite21HighlightStateBuilder5buildEPNS_17DelimitedLangElemEPNS_14HighlightStateE
libsource-highlight.so.4:_ZN9srchilite21HighlightStateBuilder5buildEPNS_18StringListLangElemEPNS_14HighlightStateE
libsource-highlight.so.4:_ZN9srchilite21HighlightStateBuilder5buildEPNS_20NamedSubExpsLangElemEPNS_14HighlightStateE
libsource-highlight.so.4:_ZN9srchilite21HighlightStateBuilder5buildEPNS_8LangElemEPNS_14HighlightStateE
libsource-highlight.so.4:_ZN9srchilite21HighlightStateBuilder5buildEPNS_9LangElemsEN5boost10shared_ptrINS_14HighlightStateEEE
libsource-highlight.so.4:_ZN9srchilite21HighlightStateBuilder8build_DBEPNS_8LangElemEPNS_14HighlightStateE
libsource-highlight.so.4:_ZN9srchilite21HighlightStateBuilderC1EPNS_20HighlightRuleFactoryE
libsource-highlight.so.4:_ZN9srchilite21HighlightStateBuilderC2EPNS_20HighlightRuleFactoryE
libsource-highlight.so.4:_ZN9srchilite21HighlightStateBuilderD0Ev
libsource-highlight.so.4:_ZN9srchilite21HighlightStateBuilderD1Ev
libsource-highlight.so.4:_ZN9srchilite21HighlightStateBuilderD2Ev
libsource-highlight.so.4:_ZN9srchilite21HighlightStatePrinter18printHighlightRuleEPKNS_13HighlightRuleE
libsource-highlight.so.4:_ZN9srchilite21HighlightStatePrinter19printHighlightStateEPKNS_14HighlightStateE
libsource-highlight.so.4:_ZN9srchilite21HighlightStatePrinter19printHighlightTokenEPKNS_14HighlightTokenE
libsource-highlight.so.4:_ZN9srchilite21HighlightStatePrinterC1ERSo
libsource-highlight.so.4:_ZN9srchilite21HighlightStatePrinterC2ERSo
libsource-highlight.so.4:_ZN9srchilite21HighlightStatePrinterD1Ev
libsource-highlight.so.4:_ZN9srchilite21HighlightStatePrinterD2Ev
libsource-highlight.so.4:_ZN9srchilite21SourceFileHighlighter17setRangeSeparatorERKNSt7__cxx1112basic_stringIcSt11char_traitsIcESaIcEEE
libsource-highlight.so.4:_ZN9srchilite21SourceFileHighlighter9highlightERKNSt7__cxx1112basic_stringIcSt11char_traitsIcESaIcEEE
libsource-highlight.so.4:_ZN9srchilite21SourceFileHighlighter9highlightERSi
libsource-highlight.so.4:_ZN9srchilite21SourceFileHighlighter9highlightEv
libsource-highlight.so.4:_ZN9srchilite21SourceFileHighlighterC1ERKNSt7__cxx1112basic_stringIcSt11char_traitsIcESaIcEEEPNS_17SourceHighlighterEPNS_14BufferedOutputE
libsource-highlight.so.4:_ZN9srchilite21SourceFileHighlighterC2ERKNSt7__cxx1112basic_stringIcSt11char_traitsIcESaIcEEEPNS_17SourceHighlighterEPNS_14BufferedOutputE
libsource-highlight.so.4:_ZN9srchilite21open_data_file_streamERKNSt7__cxx1112basic_stringIcSt11char_traitsIcESaIcEEES7_S7_
libsource-highlight.so.4:_ZN9srchilite21set_file_util_verboseEb
libsource-highlight.so.4:_ZN9srchilite22_open_data_file_streamERKNSt7__cxx1112basic_stringIcSt11char_traitsIcESaIcEEES7_
libsource-highlight.so.4:_ZN9srchilite22close_langdefinputfileEv
libsource-highlight.so.4:_ZN9srchilite22open_data_file_istreamERKNSt7__cxx1112basic_stringIcSt11char_traitsIcESaIcEEES7_S7_
libsource-highlight.so.4:_ZN9srchilite23_open_data_file_istreamERKNSt7__cxx1112basic_stringIcSt11char_traitsIcESaIcEEES7_
libsource-highlight.so.4:_ZN9srchilite23clear_outlangdefscannerEv
libsource-highlight.so.4:_ZN9srchilite25HighlightBuilderExceptionC1ERKNSt7__cxx1112basic_stringIcSt11char_traitsIcESaIcEEEPKNS_10ParserInfoERKN5boost11regex_errorE
libsource-highlight.so.4:_ZN9srchilite25HighlightBuilderExceptionC1ERKNSt7__cxx1112basic_stringIcSt11char_traitsIcESaIcEEES8_jRKN5boost11regex_errorE
libsource-highlight.so.4:_ZN9srchilite25HighlightBuilderExceptionC2ERKNSt7__cxx1112basic_stringIcSt11char_traitsIcESaIcEEEPKNS_10ParserInfoERKN5boost11regex_errorE
libsource-highlight.so.4:_ZN9srchilite25HighlightBuilderExceptionC2ERKNSt7__cxx1112basic_stringIcSt11char_traitsIcESaIcEEES8_jRKN5boost11regex_errorE
libsource-highlight.so.4:_ZN9srchilite25HighlightBuilderExceptionD0Ev
libsource-highlight.so.4:_ZN9srchilite25HighlightBuilderExceptionD1Ev
libsource-highlight.so.4:_ZN9srchilite25HighlightBuilderExceptionD2Ev
libsource-highlight.so.4:_ZN9srchilite25TextStyleFormatterFactory15createFormatterERKNSt7__cxx1112basic_stringIcSt11char_traitsIcESaIcEEES8_S8_N5boost10shared_ptrINS1_4listINS_13StyleConstantESaISC_EEEEE
libsource-highlight.so.4:_ZN9srchilite25TextStyleFormatterFactory15preprocessColorERKNSt7__cxx1112basic_stringIcSt11char_traitsIcESaIcEEE
libsource-highlight.so.4:_ZN9srchilite25TextStyleFormatterFactory19addDefaultFormatterEv
libsource-highlight.so.4:_ZN9srchilite25TextStyleFormatterFactory22createMissingFormatterERKNSt7__cxx1112basic_stringIcSt11char_traitsIcESaIcEEES8_
libsource-highlight.so.4:_ZN9srchilite25TextStyleFormatterFactoryC1EN5boost10shared_ptrINS_10TextStylesEEEPNS_12PreFormatterEPNS_14CTagsFormatterEPNS_16FormatterManagerE
libsource-highlight.so.4:_ZN9srchilite25TextStyleFormatterFactoryC2EN5boost10shared_ptrINS_10TextStylesEEEPNS_12PreFormatterEPNS_14CTagsFormatterEPNS_16FormatterManagerE
libsource-highlight.so.4:_ZN9srchilite25TextStyleFormatterFactoryD0Ev
libsource-highlight.so.4:_ZN9srchilite25TextStyleFormatterFactoryD1Ev
libsource-highlight.so.4:_ZN9srchilite25TextStyleFormatterFactoryD2Ev
libsource-highlight.so.4:_ZN9srchilite25close_outlangdefinputfileEv
libsource-highlight.so.4:_ZN9srchilite25open_outlang_file_to_scanERKNSt7__cxx1112basic_stringIcSt11char_traitsIcESaIcEEES7_
libsource-highlight.so.4:_ZN9srchilite26open_file_istream_or_errorERKNSt7__cxx1112basic_stringIcSt11char_traitsIcESaIcEEE
libsource-highlight.so.4:_ZN9srchilite5Utils7toLowerERNSt7__cxx1112basic_stringIcSt11char_traitsIcESaIcEEE
libsource-highlight.so.4:_ZN9srchilite5Utils7toUpperERNSt7__cxx1112basic_stringIcSt11char_traitsIcESaIcEEE
libsource-highlight.so.4:_ZN9srchilite5Utils7tolowerERKNSt7__cxx1112basic_stringIcSt11char_traitsIcESaIcEEE
libsource-highlight.so.4:_ZN9srchilite5Utils7toupperERKNSt7__cxx1112basic_stringIcSt11char_traitsIcESaIcEEE
libsource-highlight.so.4:_ZN9srchilite5substERKN5boost11basic_regexIcNS0_12regex_traitsIcNS0_16cpp_regex_traitsIcEEEEEERKNSt7__cxx1112basic_stringIcSt11char_traitsIcESaIcEEESG_
libsource-highlight.so.4:_ZN9srchilite7LangMap17getMappedFileNameERKNSt7__cxx1112basic_stringIcSt11char_traitsIcESaIcEEE
libsource-highlight.so.4:_ZN9srchilite7LangMap29getMappedFileNameFromFileNameERKNSt7__cxx1112basic_stringIcSt11char_traitsIcESaIcEEE
libsource-highlight.so.4:_ZN9srchilite7LangMap4openEv
libsource-highlight.so.4:_ZN9srchilite7LangMap5printEv
libsource-highlight.so.4:_ZN9srchilite7LangMap6reloadERKNSt7__cxx1112basic_stringIcSt11char_traitsIcESaIcEEES8_
libsource-highlight.so.4:_ZN9srchilite7LangMapC1ERKNSt7__cxx1112basic_stringIcSt11char_traitsIcESaIcEEE
libsource-highlight.so.4:_ZN9srchilite7LangMapC1ERKNSt7__cxx1112basic_stringIcSt11char_traitsIcESaIcEEES8_
libsource-highlight.so.4:_ZN9srchilite7LangMapC2ERKNSt7__cxx1112basic_stringIcSt11char_traitsIcESaIcEEE
libsource-highlight.so.4:_ZN9srchilite7LangMapC2ERKNSt7__cxx1112basic_stringIcSt11char_traitsIcESaIcEEES8_
libsource-highlight.so.4:_ZN9srchilite7LangMapD1Ev
libsource-highlight.so.4:_ZN9srchilite7LangMapD2Ev
libsource-highlight.so.4:_ZN9srchilite8FileInfoC1ERKNSt7__cxx1112basic_stringIcSt11char_traitsIcESaIcEEES8_
libsource-highlight.so.4:_ZN9srchilite8FileInfoC2ERKNSt7__cxx1112basic_stringIcSt11char_traitsIcESaIcEEES8_
libsource-highlight.so.4:_ZN9srchilite8FileInfoD1Ev
libsource-highlight.so.4:_ZN9srchilite8FileInfoD2Ev
libsource-highlight.so.4:_ZN9srchilite8LangElem14dispatch_buildEPNS_21HighlightStateBuilderEPNS_14HighlightStateE
libsource-highlight.so.4:_ZN9srchilite8LangElem22dispatch_collect_constEPNS_16LangElemsPrinterE
libsource-highlight.so.4:_ZN9srchilite8Settings11readDataDirEv
libsource-highlight.so.4:_ZN9srchilite8Settings13checkSettingsEv
libsource-highlight.so.4:_ZN9srchilite8Settings15retrieveDataDirB5cxx11Eb
libsource-highlight.so.4:_ZN9srchilite8Settings16checkForConfFileEv
libsource-highlight.so.4:_ZN9srchilite8Settings16checkForTestFileEv
libsource-highlight.so.4:_ZN9srchilite8Settings16setGlobalDataDirERKNSt7__cxx1112basic_stringIcSt11char_traitsIcESaIcEEE
libsource-highlight.so.4:_ZN9srchilite8Settings17getDefaultDataDirB5cxx11Ev
libsource-highlight.so.4:_ZN9srchilite8Settings4saveEv
libsource-highlight.so.4:_ZN9srchilite8SettingsC1Ev
libsource-highlight.so.4:_ZN9srchilite8SettingsC2Ev
libsource-highlight.so.4:_ZN9srchilite8SettingsD1Ev
libsource-highlight.so.4:_ZN9srchilite8SettingsD2Ev
libsource-highlight.so.4:_ZN9srchilite8Versions10getVersionB5cxx11Ev
libsource-highlight.so.4:_ZN9srchilite8Versions17getLibraryVersionB5cxx11Ev
libsource-highlight.so.4:_ZN9srchilite8Versions18getCompleteVersionB5cxx11Ev
libsource-highlight.so.4:_ZN9srchilite8readFileERKNSt7__cxx1112basic_stringIcSt11char_traitsIcESaIcEEE
libsource-highlight.so.4:_ZN9srchilite9FormatterC1Ev
libsource-highlight.so.4:_ZN9srchilite9FormatterC2Ev
libsource-highlight.so.4:_ZN9srchilite9FormatterD0Ev
libsource-highlight.so.4:_ZN9srchilite9FormatterD1Ev
libsource-highlight.so.4:_ZN9srchilite9FormatterD2Ev
libsource-highlight.so.4:_ZN9srchilite9Instances10getLangMapEv
libsource-highlight.so.4:_ZN9srchilite9Instances13getOutLangMapEv
libsource-highlight.so.4:_ZN9srchilite9Instances17getLangDefManagerEv
libsource-highlight.so.4:_ZN9srchilite9Instances6reloadEv
libsource-highlight.so.4:_ZN9srchilite9Instances6unloadEv
libsource-highlight.so.4:_ZN9srchilite9LangElems22dispatch_collect_constEPNS_16LangElemsPrinterE
libsource-highlight.so.4:_ZN9srchilite9LangElems3addEPNS_8LangElemE
libsource-highlight.so.4:_ZN9srchilite9LangElems5redefEPNS_8LangElemE
libsource-highlight.so.4:_ZN9srchilite9LangElems5substEPNS_8LangElemE
libsource-highlight.so.4:_ZN9srchilite9LangElemsC1Ev
libsource-highlight.so.4:_ZN9srchilite9LangElemsC2Ev
libsource-highlight.so.4:_ZN9srchilite9LangElemsD0Ev
libsource-highlight.so.4:_ZN9srchilite9LangElemsD1Ev
libsource-highlight.so.4:_ZN9srchilite9LangElemsD2Ev
libsource-highlight.so.4:_ZN9srchilite9StopWatchD1Ev
libsource-highlight.so.4:_ZN9srchilite9StopWatchD2Ev
libsource-highlight.so.4:_ZN9srchilite9StringDef6concatEPKS0_S2_
libsource-highlight.so.4:_ZN9srchilite9TextStyle11subst_styleERKNSt7__cxx1112basic_stringIcSt11char_traitsIcESaIcEEE
libsource-highlight.so.4:_ZN9srchilite9TextStyle13build_vectorsEv
libsource-highlight.so.4:_ZN9srchilite9TextStyle6outputERKNSt7__cxx1112basic_stringIcSt11char_traitsIcESaIcEEES8_
libsource-highlight.so.4:_ZN9srchilite9TextStyle6outputERSt3mapINSt7__cxx1112basic_stringIcSt11char_traitsIcESaIcEEES7_St4lessIS7_ESaISt4pairIKS7_S7_EEE
libsource-highlight.so.4:_ZN9srchilite9TextStyle6updateERKNSt7__cxx1112basic_stringIcSt11char_traitsIcESaIcEEE
libsource-highlight.so.4:_ZN9srchilite9TextStyle6updateERKNSt7__cxx1112basic_stringIcSt11char_traitsIcESaIcEEES8_
libsource-highlight.so.4:_ZN9srchilite9TextStyle6updateERKS0_
libsource-highlight.so.4:_ZN9srchilite9TextStyle7composeERKS0_
libsource-highlight.so.4:_ZN9srchilite9TextStyleC1ERKNSt7__cxx1112basic_stringIcSt11char_traitsIcESaIcEEEPPKc
libsource-highlight.so.4:_ZN9srchilite9TextStyleC2ERKNSt7__cxx1112basic_stringIcSt11char_traitsIcESaIcEEEPPKc
libsource-highlight.so.4:_ZN9srchilite9TextStyleD1Ev
libsource-highlight.so.4:_ZN9srchilite9TextStyleD2Ev
libsource-highlight.so.4:_ZN9srchilite9read_lineEPSiRNSt7__cxx1112basic_stringIcSt11char_traitsIcESaIcEEE
libsource-highlight.so.4:_ZN9srchilitelsERSoRKNS_11IOExceptionE
libsource-highlight.so.4:_ZN9srchilitelsERSoRKNS_15ParserExceptionE
libsource-highlight.so.4:_ZN9srchilitelsERSoRKNS_25HighlightBuilderExceptionE
libsource-highlight.so.4:_ZNK9srchilite11IOException4whatEv
libsource-highlight.so.4:_ZNK9srchilite13StateLangElem16toStringOriginalB5cxx11Ev
libsource-highlight.so.4:_ZNK9srchilite13StateLangElem8toStringB5cxx11Ev
libsource-highlight.so.4:_ZNK9srchilite14HighlightState13findBestMatchEN9__gnu_cxx17__normal_iteratorIPKcNSt7__cxx1112basic_stringIcSt11char_traitsIcESaIcEEEEESB_RNS_14HighlightTokenERKNS_18MatchingParametersE
libsource-highlight.so.4:_ZNK9srchilite14HighlightState13findBestMatchERKNSt7__cxx1112basic_stringIcSt11char_traitsIcESaIcEEERNS_14HighlightTokenERKNS_18MatchingParametersE
libsource-highlight.so.4:_ZNK9srchilite15ParserException4whatEv
libsource-highlight.so.4:_ZNK9srchilite16FormatterManager12getFormatterERKNSt7__cxx1112basic_stringIcSt11char_traitsIcESaIcEEE
libsource-highlight.so.4:_ZNK9srchilite16FormatterManager12hasFormatterERKNSt7__cxx1112basic_stringIcSt11char_traitsIcESaIcEEE
libsource-highlight.so.4:_ZNK9srchilite17DelimitedLangElem16toStringOriginalB5cxx11Ev
libsource-highlight.so.4:_ZNK9srchilite17DelimitedLangElem8toStringB5cxx11Ev
libsource-highlight.so.4:_ZNK9srchilite18RegexHighlightRule8toStringB5cxx11Ev
libsource-highlight.so.4:_ZNK9srchilite18StateStartLangElem8toStringB5cxx11Ev
libsource-highlight.so.4:_ZNK9srchilite18StringListLangElem16toStringOriginalB5cxx11Ev
libsource-highlight.so.4:_ZNK9srchilite18StringListLangElem8toStringB5cxx11Ev
libsource-highlight.so.4:_ZNK9srchilite20NamedSubExpsLangElem16toStringOriginalB5cxx11Ev
libsource-highlight.so.4:_ZNK9srchilite20NamedSubExpsLangElem8toStringB5cxx11Ev
libsource-highlight.so.4:_ZNK9srchilite25HighlightBuilderException4whatEv
libsource-highlight.so.4:_ZNK9srchilite7LangMap12getLangNamesB5cxx11Ev
libsource-highlight.so.4:_ZNK9srchilite7LangMap18getMappedFileNamesB5cxx11Ev
libsource-highlight.so.4:_ZNK9srchilite8LangElem18toStringParserInfoB5cxx11Ev
libsource-highlight.so.4:_ZNK9srchilite9LangElems16toStringOriginalB5cxx11Ev
libsource-highlight.so.4:_ZNK9srchilite9LangElems8toStringB5cxx11Ev
libsource-highlight.so.4:_ZNK9srchilite9StringDef8toStringB5cxx11Ev
libsource-highlight.so.4:_ZNK9srchilite9TextStyle16containsStyleVarEv
libsource-highlight.so.4:_ZNK9srchilite9TextStyle5emptyEv
libsource-highlight.so.4:base_len
libsource-highlight.so.4:dir_len
libsource-highlight.so.4:last_component
libsource-highlight.so.4:mdir_name
libsource-highlight.so.4:set_program_name
libsource-highlight.so.4:strip_trailing_slashes
libsource-highlight.so.4:tagsClose
libsource-highlight.so.4:tagsField
libsource-highlight.so.4:tagsFind
libsource-highlight.so.4:tagsFindNext
libsource-highlight.so.4:tagsFirst
libsource-highlight.so.4:tagsNext
libsource-highlight.so.4:tagsOpen
libsource-highlight.so.4:tagsSetSortType
libsource-highlight.so.4:yywrap
